; Function Attrs: mustprogress nounwind uwtable
define hidden void @_ZN16G1ConcurrentMark31root_region_scan_abort_and_waitEv(ptr noundef nonnull align 8 dereferenceable(1849) %0) local_unnamed_addr #0 align 2 {
  %2 = getelementptr inbounds i8, ptr %0, i64 129
  store volatile i8 1, ptr %2, align 1
  %3 = getelementptr inbounds i8, ptr %0, i64 128
  %4 = load volatile i8, ptr %3, align 8
  %5 = trunc i8 %4 to i1
  br i1 %5, label %6, label %_ZN18G1CMRootMemRegions24wait_until_scan_finishedEv.exit

6:                                                ; preds = %1
  %7 = load ptr, ptr @RootRegionScan_lock, align 8
  %.not.i.i.i = icmp eq ptr %7, null
  br i1 %.not.i.i.i, label %_ZN13MonitorLockerC2EP7MonitorN5Mutex18SafepointCheckFlagE.exit.i, label %8

8:                                                ; preds = %6
  tail call void @_ZN5Mutex28lock_without_safepoint_checkEv(ptr noundef nonnull align 8 dereferenceable(104) %7) #22
  br label %_ZN13MonitorLockerC2EP7MonitorN5Mutex18SafepointCheckFlagE.exit.i

_ZN13MonitorLockerC2EP7MonitorN5Mutex18SafepointCheckFlagE.exit.i: ; preds = %8, %6
  %9 = load volatile i8, ptr %3, align 8
  %10 = trunc i8 %9 to i1
  br i1 %10, label %_ZN13MonitorLocker4waitEl.exit.i, label %._crit_edge.i

_ZN13MonitorLocker4waitEl.exit.i:                 ; preds = %_ZN13MonitorLockerC2EP7MonitorN5Mutex18SafepointCheckFlagE.exit.i, %_ZN13MonitorLocker4waitEl.exit.i
  %11 = tail call noundef zeroext i1 @_ZN7Monitor28wait_without_safepoint_checkEm(ptr noundef nonnull align 8 dereferenceable(104) %7, i64 noundef 0) #22
  %12 = load volatile i8, ptr %3, align 8
  %13 = trunc i8 %12 to i1
  br i1 %13, label %_ZN13MonitorLocker4waitEl.exit.i, label %._crit_edge.i, !llvm.loop !19

._crit_edge.i:                                    ; preds = %_ZN13MonitorLocker4waitEl.exit.i, %_ZN13MonitorLockerC2EP7MonitorN5Mutex18SafepointCheckFlagE.exit.i
  br i1 %.not.i.i.i, label %_ZN18G1CMRootMemRegions24wait_until_scan_finishedEv.exit, label %14

14:                                               ; preds = %._crit_edge.i
  tail call void @_ZN5Mutex6unlockEv(ptr noundef nonnull align 8 dereferenceable(104) %7) #22
  br label %_ZN18G1CMRootMemRegions24wait_until_scan_finishedEv.exit

_ZN18G1CMRootMemRegions24wait_until_scan_finishedEv.exit: ; preds = %1, %._crit_edge.i, %14
  ret void
}